target datalayout = "e-m:e-p270:32:32-p271:32:32-p272:64:64-i64:64-i128:128-f80:128-n8:16:32:64-S128"
target triple = "x86_64-pc-linux-gnu"

%struct.archive_read_disk = type { %struct.archive, ptr, i8, i8, ptr, ptr, ptr, ptr, i32, ptr, ptr, ptr, ptr, ptr, ptr, ptr, ptr, ptr, ptr, ptr }
%struct.archive = type { i32, i32, ptr, i32, ptr, i32, i32, ptr, %struct.archive_string, ptr, i32, i32, ptr, ptr, i64, i64, i64, i8, i64 }
%struct.archive_string = type { ptr, i64, i64 }

@.str.10 = private unnamed_addr constant [47 x i8] c"archive_read_disk_set_metadata_filter_callback\00", align 1

; Function Attrs: nounwind uwtable
define dso_local i32 @archive_read_disk_set_metadata_filter_callback(ptr noundef %0, ptr noundef %1, ptr noundef %2) #0 {
  %4 = alloca i32, align 4
  %5 = alloca ptr, align 8
  %6 = alloca ptr, align 8
  %7 = alloca ptr, align 8
  %8 = alloca ptr, align 8
  %9 = alloca i32, align 4
  store ptr %0, ptr %5, align 8
  store ptr %1, ptr %6, align 8
  store ptr %2, ptr %7, align 8
  %10 = load ptr, ptr %5, align 8
  store ptr %10, ptr %8, align 8
  br label %11

11:                                               ; preds = %3
  %12 = load ptr, ptr %5, align 8
  %13 = call i32 @__archive_check_magic(ptr noundef %12, i32 noundef 195932357, i32 noundef 32767, ptr noundef @.str.10)
  store i32 %13, ptr %9, align 4
  %14 = load i32, ptr %9, align 4
  %15 = icmp eq i32 %14, -30
  br i1 %15, label %16, label %17

16:                                               ; preds = %11
  store i32 -30, ptr %4, align 4
  br label %25

17:                                               ; preds = %11
  br label %18

18:                                               ; preds = %17
  %19 = load ptr, ptr %6, align 8
  %20 = load ptr, ptr %8, align 8
  %21 = getelementptr inbounds %struct.archive_read_disk, ptr %20, i32 0, i32 15
  store ptr %19, ptr %21, align 8
  %22 = load ptr, ptr %7, align 8
  %23 = load ptr, ptr %8, align 8
  %24 = getelementptr inbounds %struct.archive_read_disk, ptr %23, i32 0, i32 16
  store ptr %22, ptr %24, align 8
  store i32 0, ptr %4, align 4
  br label %25

25:                                               ; preds = %18, %16
  %26 = load i32, ptr %4, align 4
  ret i32 %26
}