; Function Attrs: nounwind uwtable
define dso_local range(i32 -30, 1) i32 @archive_read_disk_set_metadata_filter_callback(ptr noundef %0, ptr noundef %1, ptr noundef %2) local_unnamed_addr #0 {
  %4 = tail call i32 @__archive_check_magic(ptr noundef %0, i32 noundef 195932357, i32 noundef 32767, ptr noundef nonnull @.str.10) #17
  %5 = icmp eq i32 %4, -30
  br i1 %5, label %9, label %6

6:                                                ; preds = %3
  %7 = getelementptr inbounds nuw i8, ptr %0, i64 248
  store ptr %1, ptr %7, align 8
  %8 = getelementptr inbounds nuw i8, ptr %0, i64 256
  store ptr %2, ptr %8, align 8
  br label %9

9:                                                ; preds = %3, %6
  %.0 = phi i32 [ 0, %6 ], [ -30, %3 ]
  ret i32 %.0
}